; Function Attrs: mustprogress null_pointer_is_valid sspstrong uwtable
define void @_ZN14SequenceDialog20on_buttonBox_clickedEP15QAbstractButton(ptr noundef align 8 dereferenceable_or_null(305) %0, ptr noundef readnone captures(address) %1) local_unnamed_addr #0 align 2 {
  %3 = getelementptr inbounds nuw i8, ptr %0, i64 192
  %4 = load ptr, ptr %3, align 8
  %5 = icmp eq ptr %1, %4
  br i1 %5, label %6, label %7

6:                                                ; preds = %2
  tail call void @_ZN14SequenceDialog9resetAxesEb(ptr noundef readonly align 8 dereferenceable_or_null(305) %0, i1 noundef zeroext false)
  br label %12

7:                                                ; preds = %2
  %8 = getelementptr inbounds nuw i8, ptr %0, i64 208
  %9 = load ptr, ptr %8, align 8
  %10 = icmp eq ptr %1, %9
  br i1 %10, label %11, label %12

11:                                               ; preds = %7
  tail call void @_ZN14SequenceDialog13exportDiagramEv(ptr noundef align 8 dereferenceable_or_null(305) %0)
  br label %12

12:                                               ; preds = %7, %11, %6
  ret void
}